; Function Attrs: nofree norecurse nosync nounwind memory(argmem: readwrite) uwtable
define internal void @conv_AV_SAMPLE_FMT_U8_to_AV_SAMPLE_FMT_FLT(ptr noundef writeonly captures(address) %0, ptr noundef readonly captures(none) %1, i32 noundef %2, i32 noundef %3, ptr noundef readnone captures(address) %4) #4 {
  %6 = mul nsw i32 %3, 3
  %7 = sext i32 %6 to i64
  %8 = sub nsw i64 0, %7
  %9 = getelementptr inbounds i8, ptr %4, i64 %8
  %10 = icmp ult ptr %0, %9
  br i1 %10, label %.lr.ph, label %.preheader

.lr.ph:                                           ; preds = %5
  %11 = sext i32 %2 to i64
  %12 = sext i32 %3 to i64
  br label %16

.preheader:                                       ; preds = %16, %5
  %.035.lcssa = phi ptr [ %1, %5 ], [ %43, %16 ]
  %.0.lcssa = phi ptr [ %0, %5 ], [ %44, %16 ]
  %13 = icmp ult ptr %.0.lcssa, %4
  br i1 %13, label %.lr.ph42, label %._crit_edge

.lr.ph42:                                         ; preds = %.preheader
  %14 = sext i32 %2 to i64
  %15 = sext i32 %3 to i64
  br label %46

16:                                               ; preds = %.lr.ph, %16
  %.038 = phi ptr [ %0, %.lr.ph ], [ %44, %16 ]
  %.03537 = phi ptr [ %1, %.lr.ph ], [ %43, %16 ]
  %17 = load i8, ptr %.03537, align 1, !tbaa !29
  %18 = zext i8 %17 to i32
  %19 = add nsw i32 %18, -128
  %20 = sitofp i32 %19 to float
  %21 = fmul nsz float %20, 7.812500e-03
  store float %21, ptr %.038, align 4, !tbaa !38
  %22 = getelementptr inbounds i8, ptr %.03537, i64 %11
  %23 = getelementptr inbounds i8, ptr %.038, i64 %12
  %24 = load i8, ptr %22, align 1, !tbaa !29
  %25 = zext i8 %24 to i32
  %26 = add nsw i32 %25, -128
  %27 = sitofp i32 %26 to float
  %28 = fmul nsz float %27, 7.812500e-03
  store float %28, ptr %23, align 4, !tbaa !38
  %29 = getelementptr inbounds i8, ptr %22, i64 %11
  %30 = getelementptr inbounds i8, ptr %23, i64 %12
  %31 = load i8, ptr %29, align 1, !tbaa !29
  %32 = zext i8 %31 to i32
  %33 = add nsw i32 %32, -128
  %34 = sitofp i32 %33 to float
  %35 = fmul nsz float %34, 7.812500e-03
  store float %35, ptr %30, align 4, !tbaa !38
  %36 = getelementptr inbounds i8, ptr %29, i64 %11
  %37 = getelementptr inbounds i8, ptr %30, i64 %12
  %38 = load i8, ptr %36, align 1, !tbaa !29
  %39 = zext i8 %38 to i32
  %40 = add nsw i32 %39, -128
  %41 = sitofp i32 %40 to float
  %42 = fmul nsz float %41, 7.812500e-03
  store float %42, ptr %37, align 4, !tbaa !38
  %43 = getelementptr inbounds i8, ptr %36, i64 %11
  %44 = getelementptr inbounds i8, ptr %37, i64 %12
  %45 = icmp ult ptr %44, %9
  br i1 %45, label %16, label %.preheader, !llvm.loop !40

46:                                               ; preds = %.lr.ph42, %46
  %.141 = phi ptr [ %.0.lcssa, %.lr.ph42 ], [ %53, %46 ]
  %.13640 = phi ptr [ %.035.lcssa, %.lr.ph42 ], [ %52, %46 ]
  %47 = load i8, ptr %.13640, align 1, !tbaa !29
  %48 = zext i8 %47 to i32
  %49 = add nsw i32 %48, -128
  %50 = sitofp i32 %49 to float
  %51 = fmul nsz float %50, 7.812500e-03
  store float %51, ptr %.141, align 4, !tbaa !38
  %52 = getelementptr inbounds i8, ptr %.13640, i64 %14
  %53 = getelementptr inbounds i8, ptr %.141, i64 %15
  %54 = icmp ult ptr %53, %4
  br i1 %54, label %46, label %._crit_edge, !llvm.loop !41

._crit_edge:                                      ; preds = %46, %.preheader
  ret void
}